target datalayout = "e-m:e-p270:32:32-p271:32:32-p272:64:64-i64:64-i128:128-f80:128-n8:16:32:64-S128"
target triple = "x86_64-pc-linux-gnu"

%struct.text_import_info_t = type { ptr, ptr, i32, %struct.anon, %struct.anon.0, ptr, i32, ptr, i32, i32, i8, %union.anon, %union.anon.1, i32, i32, i32, i32, i32, ptr, i32, i32, i32 }
%struct.anon = type { ptr, i32, i8, i8, i8 }
%struct.anon.0 = type { ptr, ptr, i32, ptr, ptr }
%union.anon = type { i32, [12 x i8] }
%union.anon.1 = type { i32, [12 x i8] }

@info_p = internal global ptr null, align 8
@.str = private unnamed_addr constant [5 x i8] c"Main\00", align 1
@.str.1 = private unnamed_addr constant [17 x i8] c"ui/text_import.c\00", align 1
@direction = internal global i32 0, align 4
@ts_sec = internal global i64 0, align 8
@ts_nsec = internal global i32 0, align 4
@ts_tick = internal global i32 1000, align 4
@packet_preamble_len = internal global i32 0, align 4
@has_direction = internal global i8 0, align 1
@timecode_warned = internal global i8 0, align 1
@packet_preamble = internal global [2049 x i8] zeroinitializer, align 16
@.str.32 = private unnamed_addr constant [3 x i8] c"iI\00", align 1
@.str.33 = private unnamed_addr constant [3 x i8] c"oO\00", align 1
@.str.34 = private unnamed_addr constant [132 x i8] c"Time conversions (%s) failed, advancing time by %d ns from previous packet on failure. First failure was for %s on input packet %d.\00", align 1
@__func__.parse_preamble = private unnamed_addr constant [15 x i8] c"parse_preamble\00", align 1
@.str.35 = private unnamed_addr constant [55 x i8] c"Time conversion (%s) failed for %s on input packet %d.\00", align 1

; Function Attrs: alwaysinline nounwind
define internal ptr @memmove.inline(ptr %0, ptr %1, i64 %2) #12 {
  %4 = alloca ptr, align 8
  %5 = alloca ptr, align 8
  %6 = alloca i64, align 8
  store ptr %0, ptr %4, align 8
  store ptr %1, ptr %5, align 8
  store i64 %2, ptr %6, align 8
  %7 = load ptr, ptr %4, align 8
  %8 = load ptr, ptr %5, align 8
  %9 = load i64, ptr %6, align 8
  %10 = load ptr, ptr %4, align 8
  %11 = call i64 @llvm.objectsize.i64.p0(ptr %10, i1 false, i1 true, i1 true)
  %12 = call ptr @__memmove_chk(ptr noundef %7, ptr noundef %8, i64 noundef %9, i64 noundef %11) #15
  ret ptr %12
}

; Function Attrs: nounwind null_pointer_is_valid sspstrong uwtable
define internal void @_parse_dir(ptr noundef %0, ptr noundef %1, ptr noundef %2, ptr noundef %3, ptr noundef %4) #3 {
  %6 = alloca ptr, align 8
  %7 = alloca ptr, align 8
  %8 = alloca ptr, align 8
  %9 = alloca ptr, align 8
  %10 = alloca ptr, align 8
  store ptr %0, ptr %6, align 8
  store ptr %1, ptr %7, align 8
  store ptr %2, ptr %8, align 8
  store ptr %3, ptr %9, align 8
  store ptr %4, ptr %10, align 8
  br label %11

11:                                               ; preds = %27, %5
  %12 = load ptr, ptr %8, align 8
  %13 = load i8, ptr %12, align 1
  %14 = sext i8 %13 to i32
  %15 = icmp ne i32 %14, 0
  br i1 %15, label %16, label %24

16:                                               ; preds = %11
  %17 = load ptr, ptr %6, align 8
  %18 = load i8, ptr %17, align 1
  %19 = zext i8 %18 to i32
  %20 = load ptr, ptr %8, align 8
  %21 = load i8, ptr %20, align 1
  %22 = sext i8 %21 to i32
  %23 = icmp ne i32 %19, %22
  br label %24

24:                                               ; preds = %16, %11
  %25 = phi i1 [ false, %11 ], [ %23, %16 ]
  br i1 %25, label %26, label %30

26:                                               ; preds = %24
  br label %27

27:                                               ; preds = %26
  %28 = load ptr, ptr %8, align 8
  %29 = getelementptr i8, ptr %28, i32 1
  store ptr %29, ptr %8, align 8
  br label %11, !llvm.loop !26

30:                                               ; preds = %24
  %31 = load ptr, ptr %8, align 8
  %32 = load i8, ptr %31, align 1
  %33 = icmp ne i8 %32, 0
  br i1 %33, label %34, label %40

34:                                               ; preds = %30
  %35 = load ptr, ptr %10, align 8
  %36 = load i32, ptr %35, align 4
  %37 = and i32 %36, -4
  %38 = or i32 %37, 1
  %39 = load ptr, ptr %10, align 8
  store i32 %38, ptr %39, align 4
  br label %76

40:                                               ; preds = %30
  br label %41

41:                                               ; preds = %57, %40
  %42 = load ptr, ptr %9, align 8
  %43 = load i8, ptr %42, align 1
  %44 = sext i8 %43 to i32
  %45 = icmp ne i32 %44, 0
  br i1 %45, label %46, label %54

46:                                               ; preds = %41
  %47 = load ptr, ptr %6, align 8
  %48 = load i8, ptr %47, align 1
  %49 = zext i8 %48 to i32
  %50 = load ptr, ptr %9, align 8
  %51 = load i8, ptr %50, align 1
  %52 = sext i8 %51 to i32
  %53 = icmp ne i32 %49, %52
  br label %54

54:                                               ; preds = %46, %41
  %55 = phi i1 [ false, %41 ], [ %53, %46 ]
  br i1 %55, label %56, label %60

56:                                               ; preds = %54
  br label %57

57:                                               ; preds = %56
  %58 = load ptr, ptr %9, align 8
  %59 = getelementptr i8, ptr %58, i32 1
  store ptr %59, ptr %9, align 8
  br label %41, !llvm.loop !27

60:                                               ; preds = %54
  %61 = load ptr, ptr %9, align 8
  %62 = load i8, ptr %61, align 1
  %63 = icmp ne i8 %62, 0
  br i1 %63, label %64, label %70

64:                                               ; preds = %60
  %65 = load ptr, ptr %10, align 8
  %66 = load i32, ptr %65, align 4
  %67 = and i32 %66, -4
  %68 = or i32 %67, 2
  %69 = load ptr, ptr %10, align 8
  store i32 %68, ptr %69, align 4
  br label %76

70:                                               ; preds = %60
  %71 = load ptr, ptr %10, align 8
  %72 = load i32, ptr %71, align 4
  %73 = and i32 %72, -4
  %74 = or i32 %73, 0
  %75 = load ptr, ptr %10, align 8
  store i32 %74, ptr %75, align 4
  br label %76

76:                                               ; preds = %70, %64, %34
  ret void
}

; Function Attrs: null_pointer_is_valid sspstrong uwtable
define internal void @parse_preamble() #0 {
  %1 = alloca i32, align 4
  %2 = alloca i8, align 1
  %3 = alloca ptr, align 8
  call void @llvm.lifetime.start.p0(i64 4, ptr %1) #15
  call void @llvm.lifetime.start.p0(i64 1, ptr %2) #15
  store i8 0, ptr %2, align 1
  %4 = load i32, ptr @packet_preamble_len, align 4
  %5 = sext i32 %4 to i64
  %6 = getelementptr [2049 x i8], ptr @packet_preamble, i64 0, i64 %5
  store i8 0, ptr %6, align 1
  %7 = load i8, ptr @has_direction, align 1, !range !10, !noundef !11
  %8 = trunc i8 %7 to i1
  br i1 %8, label %9, label %50

9:                                                ; preds = %0
  call void @_parse_dir(ptr noundef @packet_preamble, ptr noundef getelementptr ([2049 x i8], ptr @packet_preamble, i64 0, i64 1), ptr noundef @.str.32, ptr noundef @.str.33, ptr noundef @direction)
  %10 = load i32, ptr @direction, align 4
  %11 = icmp eq i32 %10, 0
  %12 = select i1 %11, i32 0, i32 1
  store i32 %12, ptr %1, align 4
  br label %13

13:                                               ; preds = %36, %9
  %14 = load i32, ptr %1, align 4
  %15 = sext i32 %14 to i64
  %16 = getelementptr [2049 x i8], ptr @packet_preamble, i64 0, i64 %15
  %17 = load i8, ptr %16, align 1
  %18 = zext i8 %17 to i32
  %19 = icmp eq i32 %18, 32
  br i1 %19, label %34, label %20

20:                                               ; preds = %13
  %21 = load i32, ptr %1, align 4
  %22 = sext i32 %21 to i64
  %23 = getelementptr [2049 x i8], ptr @packet_preamble, i64 0, i64 %22
  %24 = load i8, ptr %23, align 1
  %25 = zext i8 %24 to i32
  %26 = icmp eq i32 %25, 13
  br i1 %26, label %34, label %27

27:                                               ; preds = %20
  %28 = load i32, ptr %1, align 4
  %29 = sext i32 %28 to i64
  %30 = getelementptr [2049 x i8], ptr @packet_preamble, i64 0, i64 %29
  %31 = load i8, ptr %30, align 1
  %32 = zext i8 %31 to i32
  %33 = icmp eq i32 %32, 9
  br label %34

34:                                               ; preds = %27, %20, %13
  %35 = phi i1 [ true, %20 ], [ true, %13 ], [ %33, %27 ]
  br i1 %35, label %36, label %39

36:                                               ; preds = %34
  %37 = load i32, ptr %1, align 4
  %38 = add i32 %37, 1
  store i32 %38, ptr %1, align 4
  br label %13, !llvm.loop !36

39:                                               ; preds = %34
  %40 = load i32, ptr %1, align 4
  %41 = load i32, ptr @packet_preamble_len, align 4
  %42 = sub i32 %41, %40
  store i32 %42, ptr @packet_preamble_len, align 4
  %43 = load i32, ptr %1, align 4
  %44 = sext i32 %43 to i64
  %45 = getelementptr i8, ptr @packet_preamble, i64 %44
  %46 = load i32, ptr @packet_preamble_len, align 4
  %47 = add i32 %46, 1
  %48 = sext i32 %47 to i64
  %49 = call ptr @memmove.inline(ptr noundef @packet_preamble, ptr noundef %45, i64 noundef %48) #15
  br label %50

50:                                               ; preds = %39, %0
  %51 = load ptr, ptr @info_p, align 8
  %52 = getelementptr inbounds nuw %struct.text_import_info_t, ptr %51, i32 0, i32 5
  %53 = load ptr, ptr %52, align 8
  %54 = icmp ne ptr %53, null
  br i1 %54, label %55, label %90

55:                                               ; preds = %50
  %56 = call i64 @strlen(ptr noundef @packet_preamble) #16
  %57 = icmp ugt i64 %56, 2
  br i1 %57, label %58, label %90

58:                                               ; preds = %55
  %59 = call i64 @strlen(ptr noundef @packet_preamble) #16
  %60 = getelementptr i8, ptr @packet_preamble, i64 %59
  %61 = load ptr, ptr @info_p, align 8
  %62 = getelementptr inbounds nuw %struct.text_import_info_t, ptr %61, i32 0, i32 5
  %63 = load ptr, ptr %62, align 8
  %64 = call zeroext i1 @_parse_time(ptr noundef @packet_preamble, ptr noundef %60, ptr noundef %63, ptr noundef @ts_sec, ptr noundef @ts_nsec)
  %65 = zext i1 %64 to i8
  store i8 %65, ptr %2, align 1
  %66 = load i8, ptr %2, align 1, !range !10, !noundef !11
  %67 = trunc i8 %66 to i1
  br i1 %67, label %89, label %68

68:                                               ; preds = %58
  %69 = load i8, ptr @timecode_warned, align 1, !range !10, !noundef !11
  %70 = trunc i8 %69 to i1
  br i1 %70, label %79, label %71

71:                                               ; preds = %68
  %72 = load ptr, ptr @info_p, align 8
  %73 = getelementptr inbounds nuw %struct.text_import_info_t, ptr %72, i32 0, i32 5
  %74 = load ptr, ptr %73, align 8
  %75 = load i32, ptr @ts_tick, align 4
  %76 = load ptr, ptr @info_p, align 8
  %77 = getelementptr inbounds nuw %struct.text_import_info_t, ptr %76, i32 0, i32 20
  %78 = load i32, ptr %77, align 4
  call void (ptr, ...) @report_warning(ptr noundef @.str.34, ptr noundef %74, i32 noundef %75, ptr noundef @packet_preamble, i32 noundef %78)
  store i8 1, ptr @timecode_warned, align 1
  br label %79

79:                                               ; preds = %71, %68
  br label %80

80:                                               ; preds = %79
  %81 = load ptr, ptr @info_p, align 8
  %82 = getelementptr inbounds nuw %struct.text_import_info_t, ptr %81, i32 0, i32 5
  %83 = load ptr, ptr %82, align 8
  %84 = load ptr, ptr @info_p, align 8
  %85 = getelementptr inbounds nuw %struct.text_import_info_t, ptr %84, i32 0, i32 20
  %86 = load i32, ptr %85, align 4
  call void (ptr, i32, ptr, i64, ptr, ptr, ...) @ws_log_full(ptr noundef @.str, i32 noundef 5, ptr noundef @.str.1, i64 noundef 1255, ptr noundef @__func__.parse_preamble, ptr noundef @.str.35, ptr noundef %83, ptr noundef @packet_preamble, i32 noundef %86)
  br label %87

87:                                               ; preds = %80
  br label %88

88:                                               ; preds = %87
  br label %89

89:                                               ; preds = %88, %58
  br label %90

90:                                               ; preds = %89, %55, %50
  %91 = call i32 @ws_log_get_level()
  %92 = icmp uge i32 %91, 1
  br i1 %92, label %93, label %106

93:                                               ; preds = %90
  call void @llvm.lifetime.start.p0(i64 8, ptr %3) #15
  br label %94

94:                                               ; preds = %97, %93
  %95 = call ptr @strchr(ptr noundef @packet_preamble, i32 noundef 13) #16
  store ptr %95, ptr %3, align 8
  %96 = icmp ne ptr %95, null
  br i1 %96, label %97, label %99

97:                                               ; preds = %94
  %98 = load ptr, ptr %3, align 8
  store i8 32, ptr %98, align 1
  br label %94, !llvm.loop !37

99:                                               ; preds = %94
  br label %100

100:                                              ; preds = %99
  br label %101

101:                                              ; preds = %100
  br label %102

102:                                              ; preds = %101
  br label %103

103:                                              ; preds = %102
  br label %104

104:                                              ; preds = %103
  br label %105

105:                                              ; preds = %104
  call void @llvm.lifetime.end.p0(i64 8, ptr %3) #15
  br label %106

106:                                              ; preds = %105, %90
  %107 = load i8, ptr %2, align 1, !range !10, !noundef !11
  %108 = trunc i8 %107 to i1
  br i1 %108, label %113, label %109

109:                                              ; preds = %106
  %110 = load i32, ptr @ts_tick, align 4
  %111 = load i32, ptr @ts_nsec, align 4
  %112 = add i32 %111, %110
  store i32 %112, ptr @ts_nsec, align 4
  br label %113

113:                                              ; preds = %109, %106
  store i32 0, ptr @packet_preamble_len, align 4
  call void @llvm.lifetime.end.p0(i64 1, ptr %2) #15
  call void @llvm.lifetime.end.p0(i64 4, ptr %1) #15
  ret void
}

; Function Attrs: null_pointer_is_valid sspstrong uwtable
define internal i32 @start_new_packet(i1 noundef zeroext %0) #0 {
  %2 = alloca i32, align 4
  %3 = alloca i8, align 1
  %4 = zext i1 %0 to i8
  store i8 %4, ptr %3, align 1
  br label %5

5:                                                ; preds = %1
  br label %6

6:                                                ; preds = %5
  %7 = load i8, ptr %3, align 1, !range !10, !noundef !11
  %8 = trunc i8 %7 to i1
  %9 = call i32 @write_current_packet(i1 noundef zeroext %8)
  %10 = icmp ne i32 %9, 0
  br i1 %10, label %11, label %12

11:                                               ; preds = %6
  store i32 1, ptr %2, align 4
  br label %17

12:                                               ; preds = %6
  %13 = load ptr, ptr @info_p, align 8
  %14 = getelementptr inbounds nuw %struct.text_import_info_t, ptr %13, i32 0, i32 20
  %15 = load i32, ptr %14, align 4
  %16 = add i32 %15, 1
  store i32 %16, ptr %14, align 4
  call void @parse_preamble()
  store i32 0, ptr %2, align 4
  br label %17

17:                                               ; preds = %12, %11
  %18 = load i32, ptr %2, align 4
  ret i32 %18
}