; Function Attrs: null_pointer_is_valid sspstrong uwtable
define internal fastcc range(i32 0, 2) i32 @start_new_packet(i1 noundef zeroext %0) unnamed_addr #0 {
  %2 = tail call fastcc i32 @write_current_packet(i1 noundef zeroext %0)
  %.not = icmp eq i32 %2, 0
  br i1 %.not, label %3, label %79

3:                                                ; preds = %1
  %4 = load ptr, ptr @info_p, align 8
  %5 = getelementptr inbounds nuw i8, ptr %4, i64 180
  %6 = load i32, ptr %5, align 4
  %7 = add i32 %6, 1
  store i32 %7, ptr %5, align 4
  %8 = load i32, ptr @packet_preamble_len, align 4
  %9 = sext i32 %8 to i64
  %10 = getelementptr [2049 x i8], ptr @packet_preamble, i64 0, i64 %9
  store i8 0, ptr %10, align 1
  %11 = load i8, ptr @has_direction, align 1, !range !10, !noundef !11
  %12 = trunc nuw i8 %11 to i1
  br i1 %12, label %13, label %48

13:                                               ; preds = %3
  %14 = load i8, ptr @packet_preamble, align 16
  %15 = zext i8 %14 to i32
  br label %19

16:                                               ; preds = %19
  %17 = getelementptr i8, ptr %.02.i.i, i64 1
  %18 = load i8, ptr %17, align 1
  %exitcond.i = icmp eq ptr %17, getelementptr inbounds nuw (i8, ptr @.str.32, i64 2)
  br i1 %exitcond.i, label %.critedge.preheader.i.i, label %19, !llvm.loop !25

19:                                               ; preds = %16, %13
  %20 = phi i8 [ 105, %13 ], [ %18, %16 ]
  %.02.i.i = phi ptr [ @.str.32, %13 ], [ %17, %16 ]
  %21 = sext i8 %20 to i32
  %.not21.i.i = icmp eq i32 %15, %21
  br i1 %.not21.i.i, label %22, label %16

22:                                               ; preds = %19
  %23 = load i32, ptr @direction, align 4
  %24 = and i32 %23, -4
  %25 = or disjoint i32 %24, 1
  br label %_parse_dir.exit.i

.critedge.i.i:                                    ; preds = %.critedge.preheader.i.i
  %26 = getelementptr i8, ptr %.0184.i.i, i64 1
  %27 = load i8, ptr %26, align 1
  %exitcond17.i = icmp eq ptr %26, getelementptr inbounds nuw (i8, ptr @.str.33, i64 2)
  br i1 %exitcond17.i, label %.critedge._crit_edge.i.i, label %.critedge.preheader.i.i, !llvm.loop !26

.critedge.preheader.i.i:                          ; preds = %16, %.critedge.i.i
  %28 = phi i8 [ %27, %.critedge.i.i ], [ 111, %16 ]
  %.0184.i.i = phi ptr [ %26, %.critedge.i.i ], [ @.str.33, %16 ]
  %29 = sext i8 %28 to i32
  %.not24.i.i = icmp eq i32 %15, %29
  br i1 %.not24.i.i, label %.critedge2.i.i, label %.critedge.i.i

.critedge2.i.i:                                   ; preds = %.critedge.preheader.i.i
  %30 = load i32, ptr @direction, align 4
  %31 = and i32 %30, -4
  %32 = or disjoint i32 %31, 2
  br label %_parse_dir.exit.i

.critedge._crit_edge.i.i:                         ; preds = %.critedge.i.i
  %33 = load i32, ptr @direction, align 4
  %34 = and i32 %33, -4
  br label %_parse_dir.exit.i

_parse_dir.exit.i:                                ; preds = %.critedge._crit_edge.i.i, %.critedge2.i.i, %22
  %.sink.i.i = phi i32 [ %34, %.critedge._crit_edge.i.i ], [ %32, %.critedge2.i.i ], [ %25, %22 ]
  store i32 %.sink.i.i, ptr @direction, align 4
  %35 = icmp ne i32 %.sink.i.i, 0
  %36 = zext i1 %35 to i32
  br label %37

37:                                               ; preds = %.critedge.i, %_parse_dir.exit.i
  %.0.i = phi i32 [ %36, %_parse_dir.exit.i ], [ %41, %.critedge.i ]
  %38 = sext i32 %.0.i to i64
  %39 = getelementptr [2049 x i8], ptr @packet_preamble, i64 0, i64 %38
  %40 = load i8, ptr %39, align 1
  switch i8 %40, label %42 [
    i8 32, label %.critedge.i
    i8 13, label %.critedge.i
    i8 9, label %.critedge.i
  ]

.critedge.i:                                      ; preds = %37, %37, %37
  %41 = add i32 %.0.i, 1
  br label %37, !llvm.loop !31

42:                                               ; preds = %37
  %43 = getelementptr [2049 x i8], ptr @packet_preamble, i64 0, i64 %38
  %44 = sub i32 %8, %.0.i
  store i32 %44, ptr @packet_preamble_len, align 4
  %45 = add i32 %44, 1
  %46 = sext i32 %45 to i64
  %47 = tail call ptr @__memmove_chk(ptr noundef nonnull @packet_preamble, ptr noundef %43, i64 noundef range(i64 -2147483648, 4294967296) %46, i64 noundef 2049) #18
  %.pre = load ptr, ptr @info_p, align 8
  br label %48

48:                                               ; preds = %42, %3
  %49 = phi ptr [ %.pre, %42 ], [ %4, %3 ]
  %50 = getelementptr inbounds nuw i8, ptr %49, i64 80
  %51 = load ptr, ptr %50, align 8
  %.not.i = icmp eq ptr %51, null
  br i1 %.not.i, label %71, label %52

52:                                               ; preds = %48
  %53 = tail call i64 @strlen(ptr noundef nonnull dereferenceable(1) @packet_preamble) #17
  %54 = icmp ugt i64 %53, 2
  br i1 %54, label %55, label %71

55:                                               ; preds = %52
  %56 = getelementptr i8, ptr @packet_preamble, i64 %53
  %57 = tail call fastcc zeroext i1 @_parse_time(ptr noundef nonnull @packet_preamble, ptr noundef %56, ptr noundef %51)
  br i1 %57, label %71, label %58

58:                                               ; preds = %55
  %.b13.i = load i1, ptr @timecode_warned, align 1
  br i1 %.b13.i, label %65, label %59

59:                                               ; preds = %58
  %60 = load ptr, ptr @info_p, align 8
  %61 = getelementptr inbounds nuw i8, ptr %60, i64 80
  %62 = load ptr, ptr %61, align 8
  %63 = getelementptr inbounds nuw i8, ptr %60, i64 180
  %64 = load i32, ptr %63, align 4
  tail call void (ptr, ...) @report_warning(ptr noundef nonnull @.str.34, ptr noundef %62, i32 noundef 1000, ptr noundef nonnull @packet_preamble, i32 noundef %64)
  store i1 true, ptr @timecode_warned, align 1
  br label %65

65:                                               ; preds = %59, %58
  %66 = load ptr, ptr @info_p, align 8
  %67 = getelementptr inbounds nuw i8, ptr %66, i64 80
  %68 = load ptr, ptr %67, align 8
  %69 = getelementptr inbounds nuw i8, ptr %66, i64 180
  %70 = load i32, ptr %69, align 4
  tail call void (ptr, i32, ptr, i64, ptr, ptr, ...) @ws_log_full(ptr noundef nonnull @.str, i32 noundef 5, ptr noundef nonnull @.str.1, i64 noundef 1255, ptr noundef nonnull @__func__.parse_preamble, ptr noundef nonnull @.str.35, ptr noundef %68, ptr noundef nonnull @packet_preamble, i32 noundef %70)
  br label %71

71:                                               ; preds = %65, %55, %52, %48
  %.08.shrunk.i = phi i1 [ true, %55 ], [ false, %65 ], [ false, %52 ], [ false, %48 ]
  %72 = tail call i32 @ws_log_get_level()
  %.not14.i = icmp eq i32 %72, 0
  br i1 %.not14.i, label %.loopexit.i, label %.preheader.i

.preheader.i:                                     ; preds = %71
  %73 = tail call ptr @strchr(ptr noundef nonnull dereferenceable(1) @packet_preamble, i32 noundef 13) #17
  %.not1516.i = icmp eq ptr %73, null
  br i1 %.not1516.i, label %.loopexit.i, label %.lr.ph.i

.lr.ph.i:                                         ; preds = %.preheader.i, %.lr.ph.i
  %74 = phi ptr [ %75, %.lr.ph.i ], [ %73, %.preheader.i ]
  store i8 32, ptr %74, align 1
  %75 = tail call ptr @strchr(ptr noundef nonnull dereferenceable(1) @packet_preamble, i32 noundef 13) #17
  %.not15.i = icmp eq ptr %75, null
  br i1 %.not15.i, label %.loopexit.i, label %.lr.ph.i, !llvm.loop !32

.loopexit.i:                                      ; preds = %.lr.ph.i, %.preheader.i, %71
  br i1 %.08.shrunk.i, label %parse_preamble.exit, label %76

76:                                               ; preds = %.loopexit.i
  %77 = load i32, ptr @ts_nsec, align 4
  %78 = add i32 %77, 1000
  store i32 %78, ptr @ts_nsec, align 4
  br label %parse_preamble.exit

parse_preamble.exit:                              ; preds = %.loopexit.i, %76
  store i32 0, ptr @packet_preamble_len, align 4
  br label %79

79:                                               ; preds = %1, %parse_preamble.exit
  %.0 = phi i32 [ 0, %parse_preamble.exit ], [ 1, %1 ]
  ret i32 %.0
}